target datalayout = "e-m:e-p270:32:32-p271:32:32-p272:64:64-i64:64-i128:128-f80:128-n8:16:32:64-S128"
target triple = "x86_64-pc-linux-gnu"

%struct.ident_t = type { i32, i32, i32, i32, ptr }
%"class.LightGBM::GradientDiscretizer" = type { ptr, i32, i32, i32, i32, i8, %"class.std::vector", %"class.std::vector", %"class.std::mersenne_twister_engine", %"class.std::uniform_int_distribution", %"class.std::vector.0", %"class.std::vector.0", double, double, double, double, double, double, i8, i32, %"class.std::vector.0", %"class.std::vector.0", %"class.std::vector.0", %"class.std::vector.0", %"class.std::vector", %"class.std::vector.5" }
%"class.std::mersenne_twister_engine" = type { [624 x i64], i64 }
%"class.std::uniform_int_distribution" = type { %"struct.std::uniform_int_distribution<>::param_type" }
%"struct.std::uniform_int_distribution<>::param_type" = type { i32, i32 }
%"class.std::vector.0" = type { %"struct.std::_Vector_base.1" }
%"struct.std::_Vector_base.1" = type { %"struct.std::_Vector_base<signed char, std::allocator<signed char>>::_Vector_impl" }
%"struct.std::_Vector_base<signed char, std::allocator<signed char>>::_Vector_impl" = type { %"struct.std::_Vector_base<signed char, std::allocator<signed char>>::_Vector_impl_data" }
%"struct.std::_Vector_base<signed char, std::allocator<signed char>>::_Vector_impl_data" = type { ptr, ptr, ptr }
%"class.std::vector" = type { %"struct.std::_Vector_base" }
%"struct.std::_Vector_base" = type { %"struct.std::_Vector_base<double, std::allocator<double>>::_Vector_impl" }
%"struct.std::_Vector_base<double, std::allocator<double>>::_Vector_impl" = type { %"struct.std::_Vector_base<double, std::allocator<double>>::_Vector_impl_data" }
%"struct.std::_Vector_base<double, std::allocator<double>>::_Vector_impl_data" = type { ptr, ptr, ptr }
%"class.std::vector.5" = type { %"struct.std::_Vector_base.6" }
%"struct.std::_Vector_base.6" = type { %"struct.std::_Vector_base<std::vector<int>, std::allocator<std::vector<int>>>::_Vector_impl" }
%"struct.std::_Vector_base<std::vector<int>, std::allocator<std::vector<int>>>::_Vector_impl" = type { %"struct.std::_Vector_base<std::vector<int>, std::allocator<std::vector<int>>>::_Vector_impl_data" }
%"struct.std::_Vector_base<std::vector<int>, std::allocator<std::vector<int>>>::_Vector_impl_data" = type { ptr, ptr, ptr }

@1 = private unnamed_addr constant %struct.ident_t { i32 0, i32 514, i32 0, i32 22, ptr @0 }, align 8

; Function Attrs: norecurse nounwind uwtable
define internal void @_ZN8LightGBM19GradientDiscretizer19DiscretizeGradientsEiPKfS2_.omp_outlined.5(ptr noalias noundef %0, ptr noalias noundef %1, ptr noundef nonnull align 4 dereferenceable(4) %2, ptr noundef nonnull align 8 dereferenceable(8) %3, ptr noundef nonnull align 8 dereferenceable(8) %4, ptr noundef %5, ptr noundef nonnull align 8 dereferenceable(8) %6) #7 {
  %8 = alloca ptr, align 8
  %9 = alloca ptr, align 8
  %10 = alloca ptr, align 8
  %11 = alloca ptr, align 8
  %12 = alloca ptr, align 8
  %13 = alloca ptr, align 8
  %14 = alloca ptr, align 8
  %15 = alloca i32, align 4
  %16 = alloca i32, align 4
  %17 = alloca i32, align 4
  %18 = alloca i32, align 4
  %19 = alloca i32, align 4
  %20 = alloca i32, align 4
  %21 = alloca i32, align 4
  %22 = alloca i32, align 4
  %23 = alloca i32, align 4
  %24 = alloca double, align 8
  store ptr %0, ptr %8, align 8
  store ptr %1, ptr %9, align 8
  store ptr %2, ptr %10, align 8
  store ptr %3, ptr %11, align 8
  store ptr %4, ptr %12, align 8
  store ptr %5, ptr %13, align 8
  store ptr %6, ptr %14, align 8
  %25 = load ptr, ptr %10, align 8
  %26 = load ptr, ptr %11, align 8
  %27 = load ptr, ptr %12, align 8
  %28 = load ptr, ptr %13, align 8
  %29 = load ptr, ptr %14, align 8
  %30 = load i32, ptr %25, align 4
  store i32 %30, ptr %16, align 4
  %31 = load i32, ptr %16, align 4
  %32 = sub nsw i32 %31, 0
  %33 = sdiv i32 %32, 1
  %34 = sub nsw i32 %33, 1
  store i32 %34, ptr %17, align 4
  store i32 0, ptr %18, align 4
  %35 = load i32, ptr %16, align 4
  %36 = icmp slt i32 0, %35
  br i1 %36, label %37, label %110

37:                                               ; preds = %7
  store i32 0, ptr %19, align 4
  %38 = load i32, ptr %17, align 4
  store i32 %38, ptr %20, align 4
  store i32 1, ptr %21, align 4
  store i32 0, ptr %22, align 4
  %39 = load ptr, ptr %8, align 8
  %40 = load i32, ptr %39, align 4
  call void @__kmpc_for_static_init_4(ptr @1, i32 %40, i32 34, ptr %22, ptr %19, ptr %20, ptr %21, i32 1, i32 1)
  %41 = load i32, ptr %20, align 4
  %42 = load i32, ptr %17, align 4
  %43 = icmp sgt i32 %41, %42
  br i1 %43, label %44, label %46

44:                                               ; preds = %37
  %45 = load i32, ptr %17, align 4
  br label %48

46:                                               ; preds = %37
  %47 = load i32, ptr %20, align 4
  br label %48

48:                                               ; preds = %46, %44
  %49 = phi i32 [ %45, %44 ], [ %47, %46 ]
  store i32 %49, ptr %20, align 4
  %50 = load i32, ptr %19, align 4
  store i32 %50, ptr %15, align 4
  br label %51

51:                                               ; preds = %103, %48
  %52 = load i32, ptr %15, align 4
  %53 = load i32, ptr %20, align 4
  %54 = icmp sle i32 %52, %53
  br i1 %54, label %55, label %106

55:                                               ; preds = %51
  %56 = load i32, ptr %15, align 4
  %57 = mul nsw i32 %56, 1
  %58 = add nsw i32 0, %57
  store i32 %58, ptr %23, align 4
  %59 = load ptr, ptr %26, align 8
  %60 = load i32, ptr %23, align 4
  %61 = sext i32 %60 to i64
  %62 = getelementptr inbounds float, ptr %59, i64 %61
  %63 = load float, ptr %62, align 4
  %64 = fpext float %63 to double
  store double %64, ptr %24, align 8
  %65 = load double, ptr %24, align 8
  %66 = fcmp oge double %65, 0.000000e+00
  br i1 %66, label %67, label %73

67:                                               ; preds = %55
  %68 = load double, ptr %24, align 8
  %69 = getelementptr inbounds %"class.LightGBM::GradientDiscretizer", ptr %28, i32 0, i32 16
  %70 = load double, ptr %69, align 8
  %71 = call double @llvm.fmuladd.f64(double %68, double %70, double 5.000000e-01)
  %72 = fptosi double %71 to i8
  br label %79

73:                                               ; preds = %55
  %74 = load double, ptr %24, align 8
  %75 = getelementptr inbounds %"class.LightGBM::GradientDiscretizer", ptr %28, i32 0, i32 16
  %76 = load double, ptr %75, align 8
  %77 = call double @llvm.fmuladd.f64(double %74, double %76, double -5.000000e-01)
  %78 = fptosi double %77 to i8
  br label %79

79:                                               ; preds = %73, %67
  %80 = phi i8 [ %72, %67 ], [ %78, %73 ]
  %81 = load ptr, ptr %27, align 8
  %82 = load i32, ptr %23, align 4
  %83 = mul nsw i32 2, %82
  %84 = add nsw i32 %83, 1
  %85 = sext i32 %84 to i64
  %86 = getelementptr inbounds i8, ptr %81, i64 %85
  store i8 %80, ptr %86, align 1
  %87 = load ptr, ptr %29, align 8
  %88 = load i32, ptr %23, align 4
  %89 = sext i32 %88 to i64
  %90 = getelementptr inbounds float, ptr %87, i64 %89
  %91 = load float, ptr %90, align 4
  %92 = fpext float %91 to double
  %93 = getelementptr inbounds %"class.LightGBM::GradientDiscretizer", ptr %28, i32 0, i32 17
  %94 = load double, ptr %93, align 8
  %95 = call double @llvm.fmuladd.f64(double %92, double %94, double 5.000000e-01)
  %96 = fptosi double %95 to i8
  %97 = load ptr, ptr %27, align 8
  %98 = load i32, ptr %23, align 4
  %99 = mul nsw i32 2, %98
  %100 = sext i32 %99 to i64
  %101 = getelementptr inbounds i8, ptr %97, i64 %100
  store i8 %96, ptr %101, align 1
  br label %102

102:                                              ; preds = %79
  br label %103

103:                                              ; preds = %102
  %104 = load i32, ptr %15, align 4
  %105 = add nsw i32 %104, 1
  store i32 %105, ptr %15, align 4
  br label %51

106:                                              ; preds = %51
  br label %107

107:                                              ; preds = %106
  %108 = load ptr, ptr %8, align 8
  %109 = load i32, ptr %108, align 4
  call void @__kmpc_for_static_fini(ptr @1, i32 %109)
  br label %110

110:                                              ; preds = %107, %7
  ret void
}