; Function Attrs: norecurse nounwind uwtable
define internal void @_ZN8LightGBM19GradientDiscretizer19DiscretizeGradientsEiPKfS2_.omp_outlined.5(ptr noalias nocapture noundef readonly %0, ptr noalias nocapture readnone %1, ptr nocapture noundef nonnull readonly align 4 dereferenceable(4) %2, ptr nocapture noundef nonnull readonly align 8 dereferenceable(8) %3, ptr nocapture noundef nonnull readonly align 8 dereferenceable(8) %4, ptr nocapture noundef readonly %5, ptr nocapture noundef nonnull readonly align 8 dereferenceable(8) %6) #6 {
  %8 = alloca i32, align 4
  %9 = alloca i32, align 4
  %10 = alloca i32, align 4
  %11 = alloca i32, align 4
  %12 = load i32, ptr %2, align 4
  %13 = icmp sgt i32 %12, 0
  br i1 %13, label %14, label %48

14:                                               ; preds = %7
  %15 = add nsw i32 %12, -1
  store i32 0, ptr %8, align 4
  store i32 %15, ptr %9, align 4
  store i32 1, ptr %10, align 4
  store i32 0, ptr %11, align 4
  %16 = load i32, ptr %0, align 4
  call void @__kmpc_for_static_init_4(ptr nonnull @1, i32 %16, i32 34, ptr nonnull %11, ptr nonnull %8, ptr nonnull %9, ptr nonnull %10, i32 1, i32 1)
  %17 = load i32, ptr %9, align 4
  %18 = call i32 @llvm.smin.i32(i32 %17, i32 %15)
  store i32 %18, ptr %9, align 4
  %19 = load i32, ptr %8, align 4
  %.not22 = icmp sgt i32 %19, %18
  br i1 %.not22, label %._crit_edge, label %.lr.ph

.lr.ph:                                           ; preds = %14
  %20 = getelementptr inbounds i8, ptr %5, i64 5168
  %21 = getelementptr inbounds i8, ptr %5, i64 5176
  %22 = sext i32 %19 to i64
  br label %23

23:                                               ; preds = %.lr.ph, %23
  %indvars.iv = phi i64 [ %22, %.lr.ph ], [ %indvars.iv.next, %23 ]
  %24 = load ptr, ptr %3, align 8
  %25 = getelementptr inbounds float, ptr %24, i64 %indvars.iv
  %26 = load float, ptr %25, align 4
  %27 = fpext float %26 to double
  %28 = fcmp ult float %26, 0.000000e+00
  %29 = load double, ptr %20, align 8
  %30 = call double @llvm.fmuladd.f64(double %27, double %29, double 5.000000e-01)
  %31 = call double @llvm.fmuladd.f64(double %27, double %29, double -5.000000e-01)
  %.in = select i1 %28, double %31, double %30
  %32 = fptosi double %.in to i8
  %33 = load ptr, ptr %4, align 8
  %34 = shl nsw i64 %indvars.iv, 1
  %35 = or disjoint i64 %34, 1
  %36 = getelementptr inbounds i8, ptr %33, i64 %35
  store i8 %32, ptr %36, align 1
  %37 = load ptr, ptr %6, align 8
  %38 = getelementptr inbounds float, ptr %37, i64 %indvars.iv
  %39 = load float, ptr %38, align 4
  %40 = fpext float %39 to double
  %41 = load double, ptr %21, align 8
  %42 = call double @llvm.fmuladd.f64(double %40, double %41, double 5.000000e-01)
  %43 = fptosi double %42 to i8
  %44 = load ptr, ptr %4, align 8
  %45 = getelementptr inbounds i8, ptr %44, i64 %34
  store i8 %43, ptr %45, align 1
  %indvars.iv.next = add nsw i64 %indvars.iv, 1
  %46 = load i32, ptr %9, align 4
  %47 = sext i32 %46 to i64
  %.not.not = icmp slt i64 %indvars.iv, %47
  br i1 %.not.not, label %23, label %._crit_edge

._crit_edge:                                      ; preds = %23, %14
  call void @__kmpc_for_static_fini(ptr nonnull @1, i32 %16)
  br label %48

48:                                               ; preds = %._crit_edge, %7
  ret void
}